; Function Attrs: mustprogress uwtable
define noundef i32 @_ZN6icu_7714LocaleDistance8trieNextERNS_9BytesTrieEPKcb(ptr noundef nonnull align 8 dereferenceable(28) %0, ptr noundef readonly captures(none) %1, i1 noundef zeroext %2) local_unnamed_addr #0 align 2 {
  %4 = load i8, ptr %1, align 1, !tbaa !54
  %5 = icmp eq i8 %4, 0
  br i1 %5, label %.thread, label %.preheader

.preheader:                                       ; preds = %3, %27
  %.021 = phi i8 [ %7, %27 ], [ %4, %3 ]
  %.018 = phi ptr [ %6, %27 ], [ %1, %3 ]
  %6 = getelementptr inbounds nuw i8, ptr %.018, i64 1
  %7 = load i8, ptr %6, align 1, !tbaa !54
  %.not = icmp eq i8 %7, 0
  br i1 %.not, label %8, label %27

8:                                                ; preds = %.preheader
  %9 = or i8 %.021, -128
  %10 = zext i8 %9 to i32
  %11 = tail call noundef i32 @_ZN6icu_779BytesTrie4nextEi(ptr noundef nonnull align 8 dereferenceable(28) %0, i32 noundef %10)
  br i1 %2, label %12, label %24

12:                                               ; preds = %8
  %13 = icmp sgt i32 %11, 1
  br i1 %13, label %14, label %26

14:                                               ; preds = %12
  %15 = getelementptr inbounds nuw i8, ptr %0, i64 16
  %16 = load ptr, ptr %15, align 8, !tbaa !30
  %17 = getelementptr inbounds nuw i8, ptr %16, i64 1
  %18 = load i8, ptr %16, align 1, !tbaa !54
  %19 = lshr i8 %18, 1
  %20 = zext nneg i8 %19 to i32
  %21 = tail call noundef i32 @_ZN6icu_779BytesTrie9readValueEPKhi(ptr noundef nonnull %17, i32 noundef %20)
  %22 = icmp eq i32 %11, 2
  %23 = or i32 %21, 256
  %spec.select = select i1 %22, i32 %23, i32 %21
  br label %.thread

24:                                               ; preds = %8
  %25 = and i32 %11, 1
  %.not24 = icmp eq i32 %25, 0
  br i1 %.not24, label %26, label %.thread

26:                                               ; preds = %24, %12
  br label %.thread

27:                                               ; preds = %.preheader
  %28 = zext i8 %.021 to i32
  %29 = tail call noundef i32 @_ZN6icu_779BytesTrie4nextEi(ptr noundef nonnull align 8 dereferenceable(28) %0, i32 noundef %28)
  %30 = and i32 %29, 1
  %.not25.not = icmp eq i32 %30, 0
  br i1 %.not25.not, label %.thread, label %.preheader, !llvm.loop !55

.thread:                                          ; preds = %27, %14, %26, %24, %3
  %.017 = phi i32 [ -1, %3 ], [ 0, %24 ], [ -1, %26 ], [ %spec.select, %14 ], [ -1, %27 ]
  ret i32 %.017
}